target datalayout = "e-m:e-p270:32:32-p271:32:32-p272:64:64-i64:64-i128:128-f80:128-n8:16:32:64-S128"
target triple = "x86_64-pc-linux-gnu"

%struct.FFV1Context = type { ptr, ptr, [256 x [2 x i64]], [8 x ptr], i32, i32, i32, i32, i32, i32, i32, i32, i32, i32, i64, i32, %struct.ProgressFrame, %struct.ProgressFrame, ptr, ptr, i32, i32, i32, ptr, i32, i32, [8 x [5 x [256 x i16]]], [8 x i32], [256 x i8], [8 x ptr], i32, i32, i32, i32, i32, i32, i32, i32, i32, i32, i32, i32, i32, i32, i32, i32, i32, i32, i32, ptr, ptr, i8 }
%struct.ProgressFrame = type { ptr, ptr }
%struct.FFV1SliceContext = type { ptr, ptr, i32, i32, i32, i32, i32, i32, i32, i32, i32, i32, i32, ptr, %struct.PutBitContext, %struct.RangeCoder, i32, %union.anon.0, [4 x i32], [4 x ptr], [4 x ptr], [4 x ptr], [4 x i32], [4 x i32], [4 x ptr] }
%struct.PutBitContext = type { i32, i32, ptr, ptr, ptr }
%struct.RangeCoder = type { i32, i32, i32, i32, [256 x i8], [256 x i8], ptr, ptr, ptr, i32 }
%union.anon.0 = type { %struct.anon.1 }
%struct.anon.1 = type { [256 x [2 x i64]], [8 x ptr] }

@.str = private unnamed_addr constant [30 x i8] c"Assertion %s failed at %s:%d\0A\00", align 1
@.str.2 = private unnamed_addr constant [18 x i8] c"libavcodec/ffv1.c\00", align 1
@.str.3 = private unnamed_addr constant [24 x i8] c"bits_per_raw_sample > 8\00", align 1
@ff_log2_tab = external constant [256 x i8], align 16

; Function Attrs: alwaysinline nounwind willreturn memory(none) uwtable
define internal i32 @ff_log2_c(i32 noundef %0) #8 {
  %2 = alloca i32, align 4
  %3 = alloca i32, align 4
  store i32 %0, ptr %2, align 4, !tbaa !45
  call void @llvm.lifetime.start.p0(i64 4, ptr %3) #9
  store i32 0, ptr %3, align 4, !tbaa !45
  %4 = load i32, ptr %2, align 4, !tbaa !45
  %5 = and i32 %4, -65536
  %6 = icmp ne i32 %5, 0
  br i1 %6, label %7, label %12

7:                                                ; preds = %1
  %8 = load i32, ptr %2, align 4, !tbaa !45
  %9 = lshr i32 %8, 16
  store i32 %9, ptr %2, align 4, !tbaa !45
  %10 = load i32, ptr %3, align 4, !tbaa !45
  %11 = add nsw i32 %10, 16
  store i32 %11, ptr %3, align 4, !tbaa !45
  br label %12

12:                                               ; preds = %7, %1
  %13 = load i32, ptr %2, align 4, !tbaa !45
  %14 = and i32 %13, 65280
  %15 = icmp ne i32 %14, 0
  br i1 %15, label %16, label %21

16:                                               ; preds = %12
  %17 = load i32, ptr %2, align 4, !tbaa !45
  %18 = lshr i32 %17, 8
  store i32 %18, ptr %2, align 4, !tbaa !45
  %19 = load i32, ptr %3, align 4, !tbaa !45
  %20 = add nsw i32 %19, 8
  store i32 %20, ptr %3, align 4, !tbaa !45
  br label %21

21:                                               ; preds = %16, %12
  %22 = load i32, ptr %2, align 4, !tbaa !45
  %23 = zext i32 %22 to i64
  %24 = getelementptr inbounds nuw [256 x i8], ptr @ff_log2_tab, i64 0, i64 %23
  %25 = load i8, ptr %24, align 1, !tbaa !47
  %26 = zext i8 %25 to i32
  %27 = load i32, ptr %3, align 4, !tbaa !45
  %28 = add nsw i32 %27, %26
  store i32 %28, ptr %3, align 4, !tbaa !45
  %29 = load i32, ptr %3, align 4, !tbaa !45
  call void @llvm.lifetime.end.p0(i64 4, ptr %3) #9
  ret i32 %29
}

; Function Attrs: alwaysinline nounwind willreturn memory(none) uwtable
define internal i32 @av_ceil_log2_c(i32 noundef %0) #8 {
  %2 = alloca i32, align 4
  store i32 %0, ptr %2, align 4, !tbaa !45
  %3 = load i32, ptr %2, align 4, !tbaa !45
  %4 = sub i32 %3, 1
  %5 = shl i32 %4, 1
  %6 = call i32 @ff_log2_c(i32 noundef %5) #12
  ret i32 %6
}

; Function Attrs: nounwind uwtable
define void @ff_ffv1_compute_bits_per_plane(ptr noundef %0, ptr noundef %1, ptr noundef %2, ptr noundef %3, ptr noundef %4, i32 noundef %5) #1 {
  %7 = alloca ptr, align 8
  %8 = alloca ptr, align 8
  %9 = alloca ptr, align 8
  %10 = alloca ptr, align 8
  %11 = alloca ptr, align 8
  %12 = alloca i32, align 4
  %13 = alloca i32, align 4
  store ptr %0, ptr %7, align 8, !tbaa !9
  store ptr %1, ptr %8, align 8, !tbaa !52
  store ptr %2, ptr %9, align 8, !tbaa !94
  store ptr %3, ptr %10, align 8, !tbaa !94
  store ptr %4, ptr %11, align 8, !tbaa !94
  store i32 %5, ptr %12, align 4, !tbaa !45
  %14 = load ptr, ptr %8, align 8, !tbaa !52
  %15 = getelementptr inbounds nuw %struct.FFV1SliceContext, ptr %14, i32 0, i32 12
  %16 = load i32, ptr %15, align 8, !tbaa !95
  %17 = icmp ne i32 %16, 0
  br i1 %17, label %39, label %18

18:                                               ; preds = %6
  %19 = load i32, ptr %12, align 4, !tbaa !45
  %20 = icmp sgt i32 %19, 0
  br i1 %20, label %21, label %23

21:                                               ; preds = %18
  %22 = load i32, ptr %12, align 4, !tbaa !45
  br label %24

23:                                               ; preds = %18
  br label %24

24:                                               ; preds = %23, %21
  %25 = phi i32 [ %22, %21 ], [ 8, %23 ]
  %26 = shl i32 1, %25
  %27 = load ptr, ptr %8, align 8, !tbaa !52
  %28 = getelementptr inbounds nuw %struct.FFV1SliceContext, ptr %27, i32 0, i32 18
  %29 = getelementptr inbounds [4 x i32], ptr %28, i64 0, i64 3
  store i32 %26, ptr %29, align 4, !tbaa !45
  %30 = load ptr, ptr %8, align 8, !tbaa !52
  %31 = getelementptr inbounds nuw %struct.FFV1SliceContext, ptr %30, i32 0, i32 18
  %32 = getelementptr inbounds [4 x i32], ptr %31, i64 0, i64 2
  store i32 %26, ptr %32, align 8, !tbaa !45
  %33 = load ptr, ptr %8, align 8, !tbaa !52
  %34 = getelementptr inbounds nuw %struct.FFV1SliceContext, ptr %33, i32 0, i32 18
  %35 = getelementptr inbounds [4 x i32], ptr %34, i64 0, i64 1
  store i32 %26, ptr %35, align 4, !tbaa !45
  %36 = load ptr, ptr %8, align 8, !tbaa !52
  %37 = getelementptr inbounds nuw %struct.FFV1SliceContext, ptr %36, i32 0, i32 18
  %38 = getelementptr inbounds [4 x i32], ptr %37, i64 0, i64 0
  store i32 %26, ptr %38, align 8, !tbaa !45
  br label %39

39:                                               ; preds = %24, %6
  %40 = load ptr, ptr %8, align 8, !tbaa !52
  %41 = getelementptr inbounds nuw %struct.FFV1SliceContext, ptr %40, i32 0, i32 12
  %42 = load i32, ptr %41, align 8, !tbaa !95
  %43 = icmp ne i32 %42, 0
  br i1 %43, label %44, label %51

44:                                               ; preds = %39
  br label %45

45:                                               ; preds = %44
  %46 = load i32, ptr %12, align 4, !tbaa !45
  %47 = icmp sgt i32 %46, 8
  br i1 %47, label %49, label %48

48:                                               ; preds = %45
  call void (ptr, i32, ptr, ...) @av_log(ptr noundef null, i32 noundef 0, ptr noundef @.str, ptr noundef @.str.3, ptr noundef @.str.2, i32 noundef 233)
  call void @abort() #11
  unreachable

49:                                               ; preds = %45
  br label %50

50:                                               ; preds = %49
  br label %51

51:                                               ; preds = %50, %39
  call void @llvm.lifetime.start.p0(i64 4, ptr %13) #9
  store i32 0, ptr %13, align 4, !tbaa !45
  br label %52

52:                                               ; preds = %87, %51
  %53 = load i32, ptr %13, align 4, !tbaa !45
  %54 = load ptr, ptr %7, align 8, !tbaa !9
  %55 = getelementptr inbounds nuw %struct.FFV1Context, ptr %54, i32 0, i32 12
  %56 = load i32, ptr %55, align 8, !tbaa !96
  %57 = add nsw i32 3, %56
  %58 = icmp slt i32 %53, %57
  br i1 %58, label %60, label %59

59:                                               ; preds = %52
  call void @llvm.lifetime.end.p0(i64 4, ptr %13) #9
  br label %90

60:                                               ; preds = %52
  %61 = load ptr, ptr %8, align 8, !tbaa !52
  %62 = getelementptr inbounds nuw %struct.FFV1SliceContext, ptr %61, i32 0, i32 18
  %63 = load i32, ptr %13, align 4, !tbaa !45
  %64 = sext i32 %63 to i64
  %65 = getelementptr inbounds [4 x i32], ptr %62, i64 0, i64 %64
  %66 = load i32, ptr %65, align 4, !tbaa !45
  %67 = call i32 @av_ceil_log2_c(i32 noundef %66) #12
  %68 = load ptr, ptr %9, align 8, !tbaa !94
  %69 = load i32, ptr %13, align 4, !tbaa !45
  %70 = sext i32 %69 to i64
  %71 = getelementptr inbounds i32, ptr %68, i64 %70
  store i32 %67, ptr %71, align 4, !tbaa !45
  %72 = load ptr, ptr %11, align 8, !tbaa !94
  %73 = icmp ne ptr %72, null
  br i1 %73, label %74, label %86

74:                                               ; preds = %60
  %75 = load ptr, ptr %9, align 8, !tbaa !94
  %76 = load i32, ptr %13, align 4, !tbaa !45
  %77 = sext i32 %76 to i64
  %78 = getelementptr inbounds i32, ptr %75, i64 %77
  %79 = load i32, ptr %78, align 4, !tbaa !45
  %80 = shl i32 1, %79
  %81 = sub nsw i32 %80, 1
  %82 = load ptr, ptr %11, align 8, !tbaa !94
  %83 = load i32, ptr %13, align 4, !tbaa !45
  %84 = sext i32 %83 to i64
  %85 = getelementptr inbounds i32, ptr %82, i64 %84
  store i32 %81, ptr %85, align 4, !tbaa !45
  br label %86

86:                                               ; preds = %74, %60
  br label %87

87:                                               ; preds = %86
  %88 = load i32, ptr %13, align 4, !tbaa !45
  %89 = add nsw i32 %88, 1
  store i32 %89, ptr %13, align 4, !tbaa !45
  br label %52, !llvm.loop !97

90:                                               ; preds = %59
  %91 = load ptr, ptr %8, align 8, !tbaa !52
  %92 = getelementptr inbounds nuw %struct.FFV1SliceContext, ptr %91, i32 0, i32 9
  %93 = load i32, ptr %92, align 4, !tbaa !98
  %94 = icmp eq i32 %93, 0
  br i1 %94, label %95, label %203

95:                                               ; preds = %90
  %96 = load ptr, ptr %8, align 8, !tbaa !52
  %97 = getelementptr inbounds nuw %struct.FFV1SliceContext, ptr %96, i32 0, i32 18
  %98 = getelementptr inbounds [4 x i32], ptr %97, i64 0, i64 0
  %99 = load i32, ptr %98, align 8, !tbaa !45
  %100 = load ptr, ptr %10, align 8, !tbaa !94
  store i32 %99, ptr %100, align 4, !tbaa !45
  %101 = load ptr, ptr %8, align 8, !tbaa !52
  %102 = getelementptr inbounds nuw %struct.FFV1SliceContext, ptr %101, i32 0, i32 18
  %103 = getelementptr inbounds [4 x i32], ptr %102, i64 0, i64 0
  %104 = load i32, ptr %103, align 8, !tbaa !45
  %105 = load ptr, ptr %8, align 8, !tbaa !52
  %106 = getelementptr inbounds nuw %struct.FFV1SliceContext, ptr %105, i32 0, i32 18
  %107 = getelementptr inbounds [4 x i32], ptr %106, i64 0, i64 1
  %108 = load i32, ptr %107, align 4, !tbaa !45
  %109 = icmp sgt i32 %104, %108
  br i1 %109, label %110, label %115

110:                                              ; preds = %95
  %111 = load ptr, ptr %8, align 8, !tbaa !52
  %112 = getelementptr inbounds nuw %struct.FFV1SliceContext, ptr %111, i32 0, i32 18
  %113 = getelementptr inbounds [4 x i32], ptr %112, i64 0, i64 0
  %114 = load i32, ptr %113, align 8, !tbaa !45
  br label %120

115:                                              ; preds = %95
  %116 = load ptr, ptr %8, align 8, !tbaa !52
  %117 = getelementptr inbounds nuw %struct.FFV1SliceContext, ptr %116, i32 0, i32 18
  %118 = getelementptr inbounds [4 x i32], ptr %117, i64 0, i64 1
  %119 = load i32, ptr %118, align 4, !tbaa !45
  br label %120

120:                                              ; preds = %115, %110
  %121 = phi i32 [ %114, %110 ], [ %119, %115 ]
  %122 = load ptr, ptr %8, align 8, !tbaa !52
  %123 = getelementptr inbounds nuw %struct.FFV1SliceContext, ptr %122, i32 0, i32 18
  %124 = getelementptr inbounds [4 x i32], ptr %123, i64 0, i64 2
  %125 = load i32, ptr %124, align 8, !tbaa !45
  %126 = icmp sgt i32 %121, %125
  br i1 %126, label %127, label %149

127:                                              ; preds = %120
  %128 = load ptr, ptr %8, align 8, !tbaa !52
  %129 = getelementptr inbounds nuw %struct.FFV1SliceContext, ptr %128, i32 0, i32 18
  %130 = getelementptr inbounds [4 x i32], ptr %129, i64 0, i64 0
  %131 = load i32, ptr %130, align 8, !tbaa !45
  %132 = load ptr, ptr %8, align 8, !tbaa !52
  %133 = getelementptr inbounds nuw %struct.FFV1SliceContext, ptr %132, i32 0, i32 18
  %134 = getelementptr inbounds [4 x i32], ptr %133, i64 0, i64 1
  %135 = load i32, ptr %134, align 4, !tbaa !45
  %136 = icmp sgt i32 %131, %135
  br i1 %136, label %137, label %142

137:                                              ; preds = %127
  %138 = load ptr, ptr %8, align 8, !tbaa !52
  %139 = getelementptr inbounds nuw %struct.FFV1SliceContext, ptr %138, i32 0, i32 18
  %140 = getelementptr inbounds [4 x i32], ptr %139, i64 0, i64 0
  %141 = load i32, ptr %140, align 8, !tbaa !45
  br label %147

142:                                              ; preds = %127
  %143 = load ptr, ptr %8, align 8, !tbaa !52
  %144 = getelementptr inbounds nuw %struct.FFV1SliceContext, ptr %143, i32 0, i32 18
  %145 = getelementptr inbounds [4 x i32], ptr %144, i64 0, i64 1
  %146 = load i32, ptr %145, align 4, !tbaa !45
  br label %147

147:                                              ; preds = %142, %137
  %148 = phi i32 [ %141, %137 ], [ %146, %142 ]
  br label %154

149:                                              ; preds = %120
  %150 = load ptr, ptr %8, align 8, !tbaa !52
  %151 = getelementptr inbounds nuw %struct.FFV1SliceContext, ptr %150, i32 0, i32 18
  %152 = getelementptr inbounds [4 x i32], ptr %151, i64 0, i64 2
  %153 = load i32, ptr %152, align 8, !tbaa !45
  br label %154

154:                                              ; preds = %149, %147
  %155 = phi i32 [ %148, %147 ], [ %153, %149 ]
  %156 = call i32 @av_ceil_log2_c(i32 noundef %155) #12
  %157 = load ptr, ptr %9, align 8, !tbaa !94
  %158 = getelementptr inbounds i32, ptr %157, i64 0
  store i32 %156, ptr %158, align 4, !tbaa !45
  %159 = load ptr, ptr %8, align 8, !tbaa !52
  %160 = getelementptr inbounds nuw %struct.FFV1SliceContext, ptr %159, i32 0, i32 18
  %161 = getelementptr inbounds [4 x i32], ptr %160, i64 0, i64 0
  %162 = load i32, ptr %161, align 8, !tbaa !45
  %163 = load ptr, ptr %8, align 8, !tbaa !52
  %164 = getelementptr inbounds nuw %struct.FFV1SliceContext, ptr %163, i32 0, i32 18
  %165 = getelementptr inbounds [4 x i32], ptr %164, i64 0, i64 1
  %166 = load i32, ptr %165, align 4, !tbaa !45
  %167 = add nsw i32 %162, %166
  %168 = call i32 @av_ceil_log2_c(i32 noundef %167) #12
  %169 = load ptr, ptr %9, align 8, !tbaa !94
  %170 = getelementptr inbounds i32, ptr %169, i64 1
  store i32 %168, ptr %170, align 4, !tbaa !45
  %171 = load ptr, ptr %8, align 8, !tbaa !52
  %172 = getelementptr inbounds nuw %struct.FFV1SliceContext, ptr %171, i32 0, i32 18
  %173 = getelementptr inbounds [4 x i32], ptr %172, i64 0, i64 0
  %174 = load i32, ptr %173, align 8, !tbaa !45
  %175 = load ptr, ptr %8, align 8, !tbaa !52
  %176 = getelementptr inbounds nuw %struct.FFV1SliceContext, ptr %175, i32 0, i32 18
  %177 = getelementptr inbounds [4 x i32], ptr %176, i64 0, i64 2
  %178 = load i32, ptr %177, align 8, !tbaa !45
  %179 = add nsw i32 %174, %178
  %180 = call i32 @av_ceil_log2_c(i32 noundef %179) #12
  %181 = load ptr, ptr %9, align 8, !tbaa !94
  %182 = getelementptr inbounds i32, ptr %181, i64 2
  store i32 %180, ptr %182, align 4, !tbaa !45
  %183 = load ptr, ptr %7, align 8, !tbaa !9
  %184 = getelementptr inbounds nuw %struct.FFV1Context, ptr %183, i32 0, i32 6
  %185 = load i32, ptr %184, align 8, !tbaa !74
  %186 = icmp slt i32 %185, 262152
  br i1 %186, label %187, label %202

187:                                              ; preds = %154
  %188 = load ptr, ptr %9, align 8, !tbaa !94
  %189 = getelementptr inbounds i32, ptr %188, i64 0
  %190 = load i32, ptr %189, align 4, !tbaa !45
  %191 = add nsw i32 %190, 1
  store i32 %191, ptr %189, align 4, !tbaa !45
  %192 = load ptr, ptr %7, align 8, !tbaa !9
  %193 = getelementptr inbounds nuw %struct.FFV1Context, ptr %192, i32 0, i32 12
  %194 = load i32, ptr %193, align 8, !tbaa !96
  %195 = icmp ne i32 %194, 0
  br i1 %195, label %196, label %201

196:                                              ; preds = %187
  %197 = load ptr, ptr %9, align 8, !tbaa !94
  %198 = getelementptr inbounds i32, ptr %197, i64 3
  %199 = load i32, ptr %198, align 4, !tbaa !45
  %200 = add nsw i32 %199, 1
  store i32 %200, ptr %198, align 4, !tbaa !45
  br label %201

201:                                              ; preds = %196, %187
  br label %202

202:                                              ; preds = %201, %154
  br label %203

203:                                              ; preds = %202, %90
  ret void
}