; Function Attrs: nounwind uwtable
define void @ff_ffv1_compute_bits_per_plane(ptr noundef readonly captures(none) %0, ptr noundef captures(none) %1, ptr noundef captures(none) %2, ptr noundef writeonly captures(none) %3, ptr noundef writeonly captures(address_is_null) %4, i32 noundef %5) local_unnamed_addr #1 {
  %7 = getelementptr inbounds nuw i8, ptr %1, i64 56
  %8 = load i32, ptr %7, align 8, !tbaa !89
  %.not = icmp eq i32 %8, 0
  br i1 %.not, label %.thread, label %16

.thread:                                          ; preds = %6
  %9 = icmp sgt i32 %5, 0
  %10 = shl nuw i32 1, %5
  %11 = select i1 %9, i32 %10, i32 256
  %12 = getelementptr inbounds nuw i8, ptr %1, i64 4832
  %13 = getelementptr inbounds nuw i8, ptr %1, i64 4844
  store i32 %11, ptr %13, align 4, !tbaa !79
  %14 = getelementptr inbounds nuw i8, ptr %1, i64 4840
  store i32 %11, ptr %14, align 8, !tbaa !79
  %15 = getelementptr inbounds nuw i8, ptr %1, i64 4836
  store i32 %11, ptr %15, align 4, !tbaa !79
  store i32 %11, ptr %12, align 8, !tbaa !79
  br label %.preheader

16:                                               ; preds = %6
  %17 = icmp sgt i32 %5, 8
  br i1 %17, label %.preheader, label %39

.preheader:                                       ; preds = %.thread, %16
  %18 = getelementptr inbounds nuw i8, ptr %0, i64 4208
  %19 = load i32, ptr %18, align 8, !tbaa !90
  %20 = icmp sgt i32 %19, -3
  br i1 %20, label %.lr.ph, label %._crit_edge

.lr.ph:                                           ; preds = %.preheader
  %21 = getelementptr inbounds nuw i8, ptr %1, i64 4832
  %.not52 = icmp eq ptr %4, null
  br i1 %.not52, label %.lr.ph.split.us, label %.lr.ph.split

.lr.ph.split.us:                                  ; preds = %.lr.ph, %.lr.ph.split.us
  %indvars.iv75 = phi i64 [ %indvars.iv.next76, %.lr.ph.split.us ], [ 0, %.lr.ph ]
  %22 = getelementptr inbounds nuw [4 x i32], ptr %21, i64 0, i64 %indvars.iv75
  %23 = load i32, ptr %22, align 4, !tbaa !79
  %24 = shl i32 %23, 1
  %25 = add i32 %24, -2
  %.not.i66.us = icmp ult i32 %25, 65536
  %26 = lshr i32 %25, 16
  %spec.select.i67.us = select i1 %.not.i66.us, i32 %25, i32 %26
  %spec.select12.i68.us = select i1 %.not.i66.us, i32 0, i32 16
  %.not11.i69.us = icmp samesign ult i32 %spec.select.i67.us, 256
  %27 = lshr i32 %spec.select.i67.us, 8
  %28 = or disjoint i32 %spec.select12.i68.us, 8
  %.110.i70.us = select i1 %.not11.i69.us, i32 %spec.select.i67.us, i32 %27
  %.1.i71.us = select i1 %.not11.i69.us, i32 %spec.select12.i68.us, i32 %28
  %29 = zext nneg i32 %.110.i70.us to i64
  %30 = getelementptr inbounds nuw [256 x i8], ptr @ff_log2_tab, i64 0, i64 %29
  %31 = load i8, ptr %30, align 1, !tbaa !61
  %32 = zext i8 %31 to i32
  %33 = add nuw nsw i32 %.1.i71.us, %32
  %34 = getelementptr inbounds nuw i32, ptr %2, i64 %indvars.iv75
  store i32 %33, ptr %34, align 4, !tbaa !79
  %indvars.iv.next76 = add nuw nsw i64 %indvars.iv75, 1
  %35 = load i32, ptr %18, align 8, !tbaa !90
  %36 = add nsw i32 %35, 2
  %37 = sext i32 %36 to i64
  %38 = icmp slt i64 %indvars.iv75, %37
  br i1 %38, label %.lr.ph.split.us, label %._crit_edge, !llvm.loop !91

39:                                               ; preds = %16
  tail call void (ptr, i32, ptr, ...) @av_log(ptr noundef null, i32 noundef 0, ptr noundef nonnull @.str, ptr noundef nonnull @.str.3, ptr noundef nonnull @.str.2, i32 noundef 233) #12
  tail call void @abort() #14
  unreachable

._crit_edge:                                      ; preds = %.lr.ph.split, %.lr.ph.split.us, %.preheader
  %40 = getelementptr inbounds nuw i8, ptr %1, i64 44
  %41 = load i32, ptr %40, align 4, !tbaa !92
  %42 = icmp eq i32 %41, 0
  br i1 %42, label %62, label %117

.lr.ph.split:                                     ; preds = %.lr.ph, %.lr.ph.split
  %indvars.iv = phi i64 [ %indvars.iv.next, %.lr.ph.split ], [ 0, %.lr.ph ]
  %43 = getelementptr inbounds nuw [4 x i32], ptr %21, i64 0, i64 %indvars.iv
  %44 = load i32, ptr %43, align 4, !tbaa !79
  %45 = shl i32 %44, 1
  %46 = add i32 %45, -2
  %.not.i66 = icmp ult i32 %46, 65536
  %47 = lshr i32 %46, 16
  %spec.select.i67 = select i1 %.not.i66, i32 %46, i32 %47
  %spec.select12.i68 = select i1 %.not.i66, i32 0, i32 16
  %.not11.i69 = icmp samesign ult i32 %spec.select.i67, 256
  %48 = lshr i32 %spec.select.i67, 8
  %49 = or disjoint i32 %spec.select12.i68, 8
  %.110.i70 = select i1 %.not11.i69, i32 %spec.select.i67, i32 %48
  %.1.i71 = select i1 %.not11.i69, i32 %spec.select12.i68, i32 %49
  %50 = zext nneg i32 %.110.i70 to i64
  %51 = getelementptr inbounds nuw [256 x i8], ptr @ff_log2_tab, i64 0, i64 %50
  %52 = load i8, ptr %51, align 1, !tbaa !61
  %53 = zext i8 %52 to i32
  %54 = add nuw nsw i32 %.1.i71, %53
  %55 = getelementptr inbounds nuw i32, ptr %2, i64 %indvars.iv
  store i32 %54, ptr %55, align 4, !tbaa !79
  %notmask = shl nsw i32 -1, %54
  %56 = xor i32 %notmask, -1
  %57 = getelementptr inbounds nuw i32, ptr %4, i64 %indvars.iv
  store i32 %56, ptr %57, align 4, !tbaa !79
  %indvars.iv.next = add nuw nsw i64 %indvars.iv, 1
  %58 = load i32, ptr %18, align 8, !tbaa !90
  %59 = add nsw i32 %58, 2
  %60 = sext i32 %59 to i64
  %61 = icmp slt i64 %indvars.iv, %60
  br i1 %61, label %.lr.ph.split, label %._crit_edge, !llvm.loop !91

62:                                               ; preds = %._crit_edge
  %63 = getelementptr inbounds nuw i8, ptr %1, i64 4832
  %64 = load i32, ptr %63, align 8, !tbaa !79
  store i32 %64, ptr %3, align 4, !tbaa !79
  %65 = getelementptr inbounds nuw i8, ptr %1, i64 4836
  %66 = load i32, ptr %65, align 4, !tbaa !79
  %. = tail call i32 @llvm.smax.i32(i32 %64, i32 %66)
  %67 = getelementptr inbounds nuw i8, ptr %1, i64 4840
  %68 = load i32, ptr %67, align 8, !tbaa !79
  %spec.select = tail call i32 @llvm.smax.i32(i32 %., i32 %68)
  %69 = shl i32 %spec.select, 1
  %70 = add i32 %69, -2
  %.not.i60 = icmp ult i32 %70, 65536
  %71 = lshr i32 %70, 16
  %spec.select.i61 = select i1 %.not.i60, i32 %70, i32 %71
  %spec.select12.i62 = select i1 %.not.i60, i32 0, i32 16
  %.not11.i63 = icmp samesign ult i32 %spec.select.i61, 256
  %72 = lshr i32 %spec.select.i61, 8
  %73 = or disjoint i32 %spec.select12.i62, 8
  %.110.i64 = select i1 %.not11.i63, i32 %spec.select.i61, i32 %72
  %.1.i65 = select i1 %.not11.i63, i32 %spec.select12.i62, i32 %73
  %74 = zext nneg i32 %.110.i64 to i64
  %75 = getelementptr inbounds nuw [256 x i8], ptr @ff_log2_tab, i64 0, i64 %74
  %76 = load i8, ptr %75, align 1, !tbaa !61
  %77 = zext i8 %76 to i32
  %78 = add nuw nsw i32 %.1.i65, %77
  store i32 %78, ptr %2, align 4, !tbaa !79
  %79 = load i32, ptr %63, align 8, !tbaa !79
  %80 = load i32, ptr %65, align 4, !tbaa !79
  %81 = add nsw i32 %80, %79
  %82 = shl i32 %81, 1
  %83 = add i32 %82, -2
  %.not.i54 = icmp ult i32 %83, 65536
  %84 = lshr i32 %83, 16
  %spec.select.i55 = select i1 %.not.i54, i32 %83, i32 %84
  %spec.select12.i56 = select i1 %.not.i54, i32 0, i32 16
  %.not11.i57 = icmp samesign ult i32 %spec.select.i55, 256
  %85 = lshr i32 %spec.select.i55, 8
  %86 = or disjoint i32 %spec.select12.i56, 8
  %.110.i58 = select i1 %.not11.i57, i32 %spec.select.i55, i32 %85
  %.1.i59 = select i1 %.not11.i57, i32 %spec.select12.i56, i32 %86
  %87 = zext nneg i32 %.110.i58 to i64
  %88 = getelementptr inbounds nuw [256 x i8], ptr @ff_log2_tab, i64 0, i64 %87
  %89 = load i8, ptr %88, align 1, !tbaa !61
  %90 = zext i8 %89 to i32
  %91 = add nuw nsw i32 %.1.i59, %90
  %92 = getelementptr inbounds nuw i8, ptr %2, i64 4
  store i32 %91, ptr %92, align 4, !tbaa !79
  %93 = load i32, ptr %63, align 8, !tbaa !79
  %94 = load i32, ptr %67, align 8, !tbaa !79
  %95 = add nsw i32 %94, %93
  %96 = shl i32 %95, 1
  %97 = add i32 %96, -2
  %.not.i = icmp ult i32 %97, 65536
  %98 = lshr i32 %97, 16
  %spec.select.i = select i1 %.not.i, i32 %97, i32 %98
  %spec.select12.i = select i1 %.not.i, i32 0, i32 16
  %.not11.i = icmp samesign ult i32 %spec.select.i, 256
  %99 = lshr i32 %spec.select.i, 8
  %100 = or disjoint i32 %spec.select12.i, 8
  %.110.i = select i1 %.not11.i, i32 %spec.select.i, i32 %99
  %.1.i = select i1 %.not11.i, i32 %spec.select12.i, i32 %100
  %101 = zext nneg i32 %.110.i to i64
  %102 = getelementptr inbounds nuw [256 x i8], ptr @ff_log2_tab, i64 0, i64 %101
  %103 = load i8, ptr %102, align 1, !tbaa !61
  %104 = zext i8 %103 to i32
  %105 = add nuw nsw i32 %.1.i, %104
  %106 = getelementptr inbounds nuw i8, ptr %2, i64 8
  store i32 %105, ptr %106, align 4, !tbaa !79
  %107 = getelementptr inbounds nuw i8, ptr %0, i64 4184
  %108 = load i32, ptr %107, align 8, !tbaa !66
  %109 = icmp slt i32 %108, 262152
  br i1 %109, label %110, label %117

110:                                              ; preds = %62
  %111 = add nuw nsw i32 %78, 1
  store i32 %111, ptr %2, align 4, !tbaa !79
  %112 = load i32, ptr %18, align 8, !tbaa !90
  %.not51 = icmp eq i32 %112, 0
  br i1 %.not51, label %117, label %113

113:                                              ; preds = %110
  %114 = getelementptr inbounds nuw i8, ptr %2, i64 12
  %115 = load i32, ptr %114, align 4, !tbaa !79
  %116 = add nsw i32 %115, 1
  store i32 %116, ptr %114, align 4, !tbaa !79
  br label %117

117:                                              ; preds = %62, %113, %110, %._crit_edge
  ret void
}